target datalayout = "e-m:e-p270:32:32-p271:32:32-p272:64:64-i64:64-i128:128-f80:128-n8:16:32:64-S128"
target triple = "x86_64-unknown-linux-gnu"

%"class.std::complex" = type { { double, double } }

; Function Attrs: mustprogress uwtable
define { double, double } @_ZN8QuantLib19ExponentialIntegral2EiERKSt7complexIdE(ptr noundef nonnull align 8 dereferenceable(16) %z) #3 {
entry:
  %retval = alloca %"class.std::complex", align 8
  %z.addr = alloca ptr, align 8
  %ref.tmp = alloca %"class.std::complex", align 8
  store ptr %z, ptr %z.addr, align 8, !tbaa !9
  %0 = load ptr, ptr %z.addr, align 8, !tbaa !9
  call void @llvm.lifetime.start.p0(i64 16, ptr %ref.tmp) #13
  call void @_ZNSt7complexIdEC2Edd(ptr noundef nonnull align 8 dereferenceable(16) %ref.tmp, double noundef 0.000000e+00, double noundef 0.000000e+00)
  %call = call { double, double } @_ZN8QuantLib19ExponentialIntegral2EiERKSt7complexIdES4_(ptr noundef nonnull align 8 dereferenceable(16) %0, ptr noundef nonnull align 8 dereferenceable(16) %ref.tmp)
  %coerce.dive = getelementptr inbounds nuw %"class.std::complex", ptr %retval, i32 0, i32 0
  %1 = getelementptr inbounds nuw { double, double }, ptr %coerce.dive, i32 0, i32 0
  %2 = extractvalue { double, double } %call, 0
  store double %2, ptr %1, align 8
  %3 = getelementptr inbounds nuw { double, double }, ptr %coerce.dive, i32 0, i32 1
  %4 = extractvalue { double, double } %call, 1
  store double %4, ptr %3, align 8
  call void @llvm.lifetime.end.p0(i64 16, ptr %ref.tmp) #13
  %coerce.dive1 = getelementptr inbounds nuw %"class.std::complex", ptr %retval, i32 0, i32 0
  %5 = load { double, double }, ptr %coerce.dive1, align 8
  ret { double, double } %5
}

; Function Attrs: mustprogress nounwind uwtable
define linkonce_odr noundef double @_ZNKSt7complexIdE4realB5cxx11Ev(ptr noundef nonnull align 8 dereferenceable(16) %this) #0 comdat align 2 {
entry:
  %this.addr = alloca ptr, align 8
  store ptr %this, ptr %this.addr, align 8, !tbaa !9
  %this1 = load ptr, ptr %this.addr, align 8
  %_M_value = getelementptr inbounds nuw %"class.std::complex", ptr %this1, i32 0, i32 0
  %_M_value.realp = getelementptr inbounds nuw { double, double }, ptr %_M_value, i32 0, i32 0
  %0 = load double, ptr %_M_value.realp, align 8, !tbaa !3
  ret double %0
}

; Function Attrs: mustprogress nounwind uwtable
define linkonce_odr void @_ZNSt7complexIdEC2Edd(ptr noundef nonnull align 8 dereferenceable(16) %this, double noundef %__r, double noundef %__i) unnamed_addr #0 comdat align 2 {
entry:
  %this.addr = alloca ptr, align 8
  %__r.addr = alloca double, align 8
  %__i.addr = alloca double, align 8
  store ptr %this, ptr %this.addr, align 8, !tbaa !9
  store double %__r, ptr %__r.addr, align 8, !tbaa !3
  store double %__i, ptr %__i.addr, align 8, !tbaa !3
  %this1 = load ptr, ptr %this.addr, align 8
  %_M_value = getelementptr inbounds nuw %"class.std::complex", ptr %this1, i32 0, i32 0
  %0 = load double, ptr %__r.addr, align 8, !tbaa !3
  %1 = load double, ptr %__i.addr, align 8, !tbaa !3
  %_M_value.realp = getelementptr inbounds nuw { double, double }, ptr %_M_value, i32 0, i32 0
  %_M_value.imagp = getelementptr inbounds nuw { double, double }, ptr %_M_value, i32 0, i32 1
  store double %0, ptr %_M_value.realp, align 8
  store double %1, ptr %_M_value.imagp, align 8
  ret void
}

; Function Attrs: inlinehint mustprogress uwtable
define linkonce_odr { double, double } @_ZStngIdESt7complexIT_ERKS2_(ptr noundef nonnull align 8 dereferenceable(16) %__x) #5 comdat {
entry:
  %retval = alloca %"class.std::complex", align 8
  %__x.addr = alloca ptr, align 8
  store ptr %__x, ptr %__x.addr, align 8, !tbaa !9
  %0 = load ptr, ptr %__x.addr, align 8, !tbaa !9
  %call = call noundef double @_ZNKSt7complexIdE4realB5cxx11Ev(ptr noundef nonnull align 8 dereferenceable(16) %0)
  %fneg = fneg double %call
  %1 = load ptr, ptr %__x.addr, align 8, !tbaa !9
  %call1 = call noundef double @_ZNKSt7complexIdE4imagB5cxx11Ev(ptr noundef nonnull align 8 dereferenceable(16) %1)
  %fneg2 = fneg double %call1
  call void @_ZNSt7complexIdEC2Edd(ptr noundef nonnull align 8 dereferenceable(16) %retval, double noundef %fneg, double noundef %fneg2)
  %coerce.dive = getelementptr inbounds nuw %"class.std::complex", ptr %retval, i32 0, i32 0
  %2 = load { double, double }, ptr %coerce.dive, align 8
  ret { double, double } %2
}

; Function Attrs: mustprogress nounwind uwtable
define linkonce_odr noundef double @_ZNKSt7complexIdE4imagB5cxx11Ev(ptr noundef nonnull align 8 dereferenceable(16) %this) #0 comdat align 2 {
entry:
  %this.addr = alloca ptr, align 8
  store ptr %this, ptr %this.addr, align 8, !tbaa !9
  %this1 = load ptr, ptr %this.addr, align 8
  %_M_value = getelementptr inbounds nuw %"class.std::complex", ptr %this1, i32 0, i32 0
  %_M_value.imagp = getelementptr inbounds nuw { double, double }, ptr %_M_value, i32 0, i32 1
  %0 = load double, ptr %_M_value.imagp, align 8, !tbaa !3
  ret double %0
}

; Function Attrs: mustprogress uwtable
define { double, double } @_ZN8QuantLib19ExponentialIntegral2E1ERKSt7complexIdE(ptr noundef nonnull align 8 dereferenceable(16) %z) #3 {
entry:
  %retval = alloca %"class.std::complex", align 8
  %z.addr = alloca ptr, align 8
  %ref.tmp = alloca %"class.std::complex", align 8
  %ref.tmp1 = alloca %"class.std::complex", align 8
  %ref.tmp3 = alloca %"class.std::complex", align 8
  %ref.tmp13 = alloca %"class.std::complex", align 8
  %ref.tmp14 = alloca %"class.std::complex", align 8
  %ref.tmp17 = alloca %"class.std::complex", align 8
  %ref.tmp23 = alloca %"class.std::complex", align 8
  %ref.tmp24 = alloca %"class.std::complex", align 8
  store ptr %z, ptr %z.addr, align 8, !tbaa !9
  %0 = load ptr, ptr %z.addr, align 8, !tbaa !9
  %call = call noundef double @_ZNKSt7complexIdE4imagB5cxx11Ev(ptr noundef nonnull align 8 dereferenceable(16) %0)
  %cmp = fcmp olt double %call, 0.000000e+00
  br i1 %cmp, label %if.then, label %if.else

if.then:                                          ; preds = %entry
  call void @llvm.lifetime.start.p0(i64 16, ptr %ref.tmp) #13
  call void @llvm.lifetime.start.p0(i64 16, ptr %ref.tmp1) #13
  %1 = load ptr, ptr %z.addr, align 8, !tbaa !9
  %call2 = call { double, double } @_ZStngIdESt7complexIT_ERKS2_(ptr noundef nonnull align 8 dereferenceable(16) %1)
  %coerce.dive = getelementptr inbounds nuw %"class.std::complex", ptr %ref.tmp1, i32 0, i32 0
  %2 = getelementptr inbounds nuw { double, double }, ptr %coerce.dive, i32 0, i32 0
  %3 = extractvalue { double, double } %call2, 0
  store double %3, ptr %2, align 8
  %4 = getelementptr inbounds nuw { double, double }, ptr %coerce.dive, i32 0, i32 1
  %5 = extractvalue { double, double } %call2, 1
  store double %5, ptr %4, align 8
  call void @llvm.lifetime.start.p0(i64 16, ptr %ref.tmp3) #13
  call void @_ZNSt7complexIdEC2Edd(ptr noundef nonnull align 8 dereferenceable(16) %ref.tmp3, double noundef 0.000000e+00, double noundef 0xC00921FB54442D18)
  %call4 = call { double, double } @_ZN8QuantLib19ExponentialIntegral2EiERKSt7complexIdES4_(ptr noundef nonnull align 8 dereferenceable(16) %ref.tmp1, ptr noundef nonnull align 8 dereferenceable(16) %ref.tmp3)
  %coerce.dive5 = getelementptr inbounds nuw %"class.std::complex", ptr %ref.tmp, i32 0, i32 0
  %6 = getelementptr inbounds nuw { double, double }, ptr %coerce.dive5, i32 0, i32 0
  %7 = extractvalue { double, double } %call4, 0
  store double %7, ptr %6, align 8
  %8 = getelementptr inbounds nuw { double, double }, ptr %coerce.dive5, i32 0, i32 1
  %9 = extractvalue { double, double } %call4, 1
  store double %9, ptr %8, align 8
  %call6 = call { double, double } @_ZStngIdESt7complexIT_ERKS2_(ptr noundef nonnull align 8 dereferenceable(16) %ref.tmp)
  %coerce.dive7 = getelementptr inbounds nuw %"class.std::complex", ptr %retval, i32 0, i32 0
  %10 = getelementptr inbounds nuw { double, double }, ptr %coerce.dive7, i32 0, i32 0
  %11 = extractvalue { double, double } %call6, 0
  store double %11, ptr %10, align 8
  %12 = getelementptr inbounds nuw { double, double }, ptr %coerce.dive7, i32 0, i32 1
  %13 = extractvalue { double, double } %call6, 1
  store double %13, ptr %12, align 8
  call void @llvm.lifetime.end.p0(i64 16, ptr %ref.tmp3) #13
  call void @llvm.lifetime.end.p0(i64 16, ptr %ref.tmp1) #13
  call void @llvm.lifetime.end.p0(i64 16, ptr %ref.tmp) #13
  br label %return

if.else:                                          ; preds = %entry
  %14 = load ptr, ptr %z.addr, align 8, !tbaa !9
  %call8 = call noundef double @_ZNKSt7complexIdE4imagB5cxx11Ev(ptr noundef nonnull align 8 dereferenceable(16) %14)
  %cmp9 = fcmp ogt double %call8, 0.000000e+00
  br i1 %cmp9, label %if.then12, label %lor.lhs.false

lor.lhs.false:                                    ; preds = %if.else
  %15 = load ptr, ptr %z.addr, align 8, !tbaa !9
  %call10 = call noundef double @_ZNKSt7complexIdE4realB5cxx11Ev(ptr noundef nonnull align 8 dereferenceable(16) %15)
  %cmp11 = fcmp olt double %call10, 0.000000e+00
  br i1 %cmp11, label %if.then12, label %if.else22

if.then12:                                        ; preds = %lor.lhs.false, %if.else
  call void @llvm.lifetime.start.p0(i64 16, ptr %ref.tmp13) #13
  call void @llvm.lifetime.start.p0(i64 16, ptr %ref.tmp14) #13
  %16 = load ptr, ptr %z.addr, align 8, !tbaa !9
  %call15 = call { double, double } @_ZStngIdESt7complexIT_ERKS2_(ptr noundef nonnull align 8 dereferenceable(16) %16)
  %coerce.dive16 = getelementptr inbounds nuw %"class.std::complex", ptr %ref.tmp14, i32 0, i32 0
  %17 = getelementptr inbounds nuw { double, double }, ptr %coerce.dive16, i32 0, i32 0
  %18 = extractvalue { double, double } %call15, 0
  store double %18, ptr %17, align 8
  %19 = getelementptr inbounds nuw { double, double }, ptr %coerce.dive16, i32 0, i32 1
  %20 = extractvalue { double, double } %call15, 1
  store double %20, ptr %19, align 8
  call void @llvm.lifetime.start.p0(i64 16, ptr %ref.tmp17) #13
  call void @_ZNSt7complexIdEC2Edd(ptr noundef nonnull align 8 dereferenceable(16) %ref.tmp17, double noundef 0.000000e+00, double noundef 0x400921FB54442D18)
  %call18 = call { double, double } @_ZN8QuantLib19ExponentialIntegral2EiERKSt7complexIdES4_(ptr noundef nonnull align 8 dereferenceable(16) %ref.tmp14, ptr noundef nonnull align 8 dereferenceable(16) %ref.tmp17)
  %coerce.dive19 = getelementptr inbounds nuw %"class.std::complex", ptr %ref.tmp13, i32 0, i32 0
  %21 = getelementptr inbounds nuw { double, double }, ptr %coerce.dive19, i32 0, i32 0
  %22 = extractvalue { double, double } %call18, 0
  store double %22, ptr %21, align 8
  %23 = getelementptr inbounds nuw { double, double }, ptr %coerce.dive19, i32 0, i32 1
  %24 = extractvalue { double, double } %call18, 1
  store double %24, ptr %23, align 8
  %call20 = call { double, double } @_ZStngIdESt7complexIT_ERKS2_(ptr noundef nonnull align 8 dereferenceable(16) %ref.tmp13)
  %coerce.dive21 = getelementptr inbounds nuw %"class.std::complex", ptr %retval, i32 0, i32 0
  %25 = getelementptr inbounds nuw { double, double }, ptr %coerce.dive21, i32 0, i32 0
  %26 = extractvalue { double, double } %call20, 0
  store double %26, ptr %25, align 8
  %27 = getelementptr inbounds nuw { double, double }, ptr %coerce.dive21, i32 0, i32 1
  %28 = extractvalue { double, double } %call20, 1
  store double %28, ptr %27, align 8
  call void @llvm.lifetime.end.p0(i64 16, ptr %ref.tmp17) #13
  call void @llvm.lifetime.end.p0(i64 16, ptr %ref.tmp14) #13
  call void @llvm.lifetime.end.p0(i64 16, ptr %ref.tmp13) #13
  br label %return

if.else22:                                        ; preds = %lor.lhs.false
  call void @llvm.lifetime.start.p0(i64 16, ptr %ref.tmp23) #13
  call void @llvm.lifetime.start.p0(i64 16, ptr %ref.tmp24) #13
  %29 = load ptr, ptr %z.addr, align 8, !tbaa !9
  %call25 = call { double, double } @_ZStngIdESt7complexIT_ERKS2_(ptr noundef nonnull align 8 dereferenceable(16) %29)
  %coerce.dive26 = getelementptr inbounds nuw %"class.std::complex", ptr %ref.tmp24, i32 0, i32 0
  %30 = getelementptr inbounds nuw { double, double }, ptr %coerce.dive26, i32 0, i32 0
  %31 = extractvalue { double, double } %call25, 0
  store double %31, ptr %30, align 8
  %32 = getelementptr inbounds nuw { double, double }, ptr %coerce.dive26, i32 0, i32 1
  %33 = extractvalue { double, double } %call25, 1
  store double %33, ptr %32, align 8
  %call27 = call { double, double } @_ZN8QuantLib19ExponentialIntegral2EiERKSt7complexIdE(ptr noundef nonnull align 8 dereferenceable(16) %ref.tmp24)
  %coerce.dive28 = getelementptr inbounds nuw %"class.std::complex", ptr %ref.tmp23, i32 0, i32 0
  %34 = getelementptr inbounds nuw { double, double }, ptr %coerce.dive28, i32 0, i32 0
  %35 = extractvalue { double, double } %call27, 0
  store double %35, ptr %34, align 8
  %36 = getelementptr inbounds nuw { double, double }, ptr %coerce.dive28, i32 0, i32 1
  %37 = extractvalue { double, double } %call27, 1
  store double %37, ptr %36, align 8
  %call29 = call { double, double } @_ZStngIdESt7complexIT_ERKS2_(ptr noundef nonnull align 8 dereferenceable(16) %ref.tmp23)
  %coerce.dive30 = getelementptr inbounds nuw %"class.std::complex", ptr %retval, i32 0, i32 0
  %38 = getelementptr inbounds nuw { double, double }, ptr %coerce.dive30, i32 0, i32 0
  %39 = extractvalue { double, double } %call29, 0
  store double %39, ptr %38, align 8
  %40 = getelementptr inbounds nuw { double, double }, ptr %coerce.dive30, i32 0, i32 1
  %41 = extractvalue { double, double } %call29, 1
  store double %41, ptr %40, align 8
  call void @llvm.lifetime.end.p0(i64 16, ptr %ref.tmp24) #13
  call void @llvm.lifetime.end.p0(i64 16, ptr %ref.tmp23) #13
  br label %return

return:                                           ; preds = %if.else22, %if.then12, %if.then
  %coerce.dive31 = getelementptr inbounds nuw %"class.std::complex", ptr %retval, i32 0, i32 0
  %42 = load { double, double }, ptr %coerce.dive31, align 8
  ret { double, double } %42
}