; Function Attrs: mustprogress uwtable
define { double, double } @_ZN8QuantLib19ExponentialIntegral2E1ERKSt7complexIdE(ptr nocapture noundef nonnull readonly align 8 dereferenceable(16) %z) local_unnamed_addr #5 {
entry:
  %ref.tmp.i = alloca %"class.std::complex", align 8
  %ref.tmp1 = alloca %"class.std::complex", align 8
  %ref.tmp3 = alloca %"class.std::complex", align 8
  %ref.tmp14 = alloca %"class.std::complex", align 8
  %ref.tmp17 = alloca %"class.std::complex", align 8
  %ref.tmp24 = alloca %"class.std::complex", align 8
  %_M_value.imagp.i = getelementptr inbounds nuw i8, ptr %z, i64 8
  %0 = load double, ptr %_M_value.imagp.i, align 8, !tbaa !23
  %cmp = fcmp olt double %0, 0.000000e+00
  br i1 %cmp, label %if.then, label %if.else

if.then:                                          ; preds = %entry
  call void @llvm.lifetime.start.p0(i64 16, ptr nonnull %ref.tmp1) #21
  %1 = load double, ptr %z, align 8, !tbaa !23
  %fneg.i = fneg double %1
  %fneg2.i = fneg double %0
  store double %fneg.i, ptr %ref.tmp1, align 8
  %2 = getelementptr inbounds nuw i8, ptr %ref.tmp1, i64 8
  store double %fneg2.i, ptr %2, align 8
  call void @llvm.lifetime.start.p0(i64 16, ptr nonnull %ref.tmp3) #21
  %_M_value.imagp.i7 = getelementptr inbounds nuw i8, ptr %ref.tmp3, i64 8
  store double 0.000000e+00, ptr %ref.tmp3, align 8
  store double 0xC00921FB54442D18, ptr %_M_value.imagp.i7, align 8
  %call4 = call { double, double } @_ZN8QuantLib19ExponentialIntegral2EiERKSt7complexIdES4_(ptr noundef nonnull align 8 dereferenceable(16) %ref.tmp1, ptr noundef nonnull align 8 dereferenceable(16) %ref.tmp3)
  %3 = extractvalue { double, double } %call4, 0
  %4 = extractvalue { double, double } %call4, 1
  %fneg.i8 = fneg double %3
  %fneg2.i10 = fneg double %4
  call void @llvm.lifetime.end.p0(i64 16, ptr nonnull %ref.tmp3) #21
  call void @llvm.lifetime.end.p0(i64 16, ptr nonnull %ref.tmp1) #21
  br label %return

if.else:                                          ; preds = %entry
  %cmp9 = fcmp ogt double %0, 0.000000e+00
  %.pre = load double, ptr %z, align 8, !tbaa !23
  %cmp11 = fcmp olt double %.pre, 0.000000e+00
  %or.cond = select i1 %cmp9, i1 true, i1 %cmp11
  %fneg.i14 = fneg double %.pre
  %fneg2.i16 = fneg double %0
  br i1 %or.cond, label %if.then12, label %if.else22

if.then12:                                        ; preds = %if.else
  call void @llvm.lifetime.start.p0(i64 16, ptr nonnull %ref.tmp14) #21
  store double %fneg.i14, ptr %ref.tmp14, align 8
  %5 = getelementptr inbounds nuw i8, ptr %ref.tmp14, i64 8
  store double %fneg2.i16, ptr %5, align 8
  call void @llvm.lifetime.start.p0(i64 16, ptr nonnull %ref.tmp17) #21
  %_M_value.imagp.i19 = getelementptr inbounds nuw i8, ptr %ref.tmp17, i64 8
  store double 0.000000e+00, ptr %ref.tmp17, align 8
  store double 0x400921FB54442D18, ptr %_M_value.imagp.i19, align 8
  %call18 = call { double, double } @_ZN8QuantLib19ExponentialIntegral2EiERKSt7complexIdES4_(ptr noundef nonnull align 8 dereferenceable(16) %ref.tmp14, ptr noundef nonnull align 8 dereferenceable(16) %ref.tmp17)
  %6 = extractvalue { double, double } %call18, 0
  %7 = extractvalue { double, double } %call18, 1
  %fneg.i20 = fneg double %6
  %fneg2.i22 = fneg double %7
  call void @llvm.lifetime.end.p0(i64 16, ptr nonnull %ref.tmp17) #21
  call void @llvm.lifetime.end.p0(i64 16, ptr nonnull %ref.tmp14) #21
  br label %return

if.else22:                                        ; preds = %if.else
  call void @llvm.lifetime.start.p0(i64 16, ptr nonnull %ref.tmp24) #21
  store double %fneg.i14, ptr %ref.tmp24, align 8
  %8 = getelementptr inbounds nuw i8, ptr %ref.tmp24, i64 8
  store double %fneg2.i16, ptr %8, align 8
  call void @llvm.lifetime.start.p0(i64 16, ptr nonnull %ref.tmp.i) #21
  call void @llvm.memset.p0.i64(ptr noundef nonnull align 8 dereferenceable(16) %ref.tmp.i, i8 0, i64 16, i1 false)
  %call.i = call { double, double } @_ZN8QuantLib19ExponentialIntegral2EiERKSt7complexIdES4_(ptr noundef nonnull align 8 dereferenceable(16) %ref.tmp24, ptr noundef nonnull align 8 dereferenceable(16) %ref.tmp.i)
  call void @llvm.lifetime.end.p0(i64 16, ptr nonnull %ref.tmp.i) #21
  %9 = extractvalue { double, double } %call.i, 0
  %10 = extractvalue { double, double } %call.i, 1
  %fneg.i30 = fneg double %9
  %fneg2.i32 = fneg double %10
  call void @llvm.lifetime.end.p0(i64 16, ptr nonnull %ref.tmp24) #21
  br label %return

return:                                           ; preds = %if.else22, %if.then12, %if.then
  %fneg.i8.pn = phi double [ %fneg.i8, %if.then ], [ %fneg.i20, %if.then12 ], [ %fneg.i30, %if.else22 ]
  %fneg2.i10.pn = phi double [ %fneg2.i10, %if.then ], [ %fneg2.i22, %if.then12 ], [ %fneg2.i32, %if.else22 ]
  %.fca.0.insert.i11.pn = insertvalue { double, double } poison, double %fneg.i8.pn, 0
  %call6.pn = insertvalue { double, double } %.fca.0.insert.i11.pn, double %fneg2.i10.pn, 1
  ret { double, double } %call6.pn
}